target datalayout = "e-m:e-p270:32:32-p271:32:32-p272:64:64-i64:64-i128:128-f80:128-n8:16:32:64-S128"
target triple = "x86_64-pc-linux-gnu"

@.str = private unnamed_addr constant [3 x i8] c"%d\00", align 1

; Function Attrs: mustprogress nounwind uwtable
define hidden void @_ZN2cv8tinyxml27XMLUtil5ToStrEbPci(i1 noundef zeroext %0, ptr noundef %1, i32 noundef %2) #0 align 2 {
  %4 = alloca i8, align 1
  %5 = alloca ptr, align 8
  %6 = alloca i32, align 4
  %7 = zext i1 %0 to i8
  store i8 %7, ptr %4, align 1, !tbaa !37
  store ptr %1, ptr %5, align 8, !tbaa !14
  store i32 %2, ptr %6, align 4, !tbaa !15
  %8 = load ptr, ptr %5, align 8, !tbaa !14
  %9 = load i32, ptr %6, align 4, !tbaa !15
  %10 = sext i32 %9 to i64
  %11 = load i8, ptr %4, align 1, !tbaa !37, !range !39, !noundef !40
  %12 = trunc i8 %11 to i1
  %13 = select i1 %12, i32 1, i32 0
  %14 = call i32 (ptr, i64, ptr, ...) @snprintf(ptr noundef %8, i64 noundef %10, ptr noundef @.str, i32 noundef %13) #17
  ret void
}

; Function Attrs: mustprogress uwtable
define hidden void @_ZN2cv8tinyxml210XMLElement7SetTextEb(ptr noundef nonnull align 8 dereferenceable(104) %0, i1 noundef zeroext %1) #3 align 2 {
  %3 = alloca ptr, align 8
  %4 = alloca i8, align 1
  %5 = alloca [200 x i8], align 16
  store ptr %0, ptr %3, align 8, !tbaa !121
  %6 = zext i1 %1 to i8
  store i8 %6, ptr %4, align 1, !tbaa !37
  %7 = load ptr, ptr %3, align 8
  call void @llvm.lifetime.start.p0(i64 200, ptr %5) #17
  %8 = load i8, ptr %4, align 1, !tbaa !37, !range !39, !noundef !40
  %9 = trunc i8 %8 to i1
  %10 = getelementptr inbounds [200 x i8], ptr %5, i64 0, i64 0
  call void @_ZN2cv8tinyxml27XMLUtil5ToStrEbPci(i1 noundef zeroext %9, ptr noundef %10, i32 noundef 200)
  %11 = getelementptr inbounds [200 x i8], ptr %5, i64 0, i64 0
  call void @_ZN2cv8tinyxml210XMLElement7SetTextEPKc(ptr noundef nonnull align 8 dereferenceable(104) %7, ptr noundef %11)
  call void @llvm.lifetime.end.p0(i64 200, ptr %5) #17
  ret void
}